target datalayout = "e-m:e-p270:32:32-p271:32:32-p272:64:64-i64:64-i128:128-f80:128-n8:16:32:64-S128"
target triple = "x86_64-pc-linux-gnu"

%struct._generic_N_Vector = type { ptr, ptr, ptr }
%struct._generic_N_Vector_Ops = type { ptr, ptr, ptr, ptr, ptr, ptr, ptr, ptr, ptr, ptr, ptr, ptr, ptr, ptr, ptr, ptr, ptr, ptr, ptr, ptr, ptr, ptr, ptr, ptr, ptr, ptr, ptr, ptr, ptr, ptr, ptr, ptr, ptr, ptr, ptr, ptr, ptr, ptr, ptr, ptr, ptr, ptr, ptr, ptr, ptr, ptr, ptr, ptr, ptr, ptr, ptr, ptr, ptr, ptr, ptr, ptr }

; Function Attrs: nounwind uwtable
define i32 @N_VEnableFusedOps_Serial(ptr noundef %0, i32 noundef %1) #0 {
  %3 = alloca ptr, align 8
  %4 = alloca i32, align 4
  store ptr %0, ptr %3, align 8, !tbaa !10
  store i32 %1, ptr %4, align 4, !tbaa !74
  %5 = load i32, ptr %4, align 4, !tbaa !74
  %6 = icmp ne i32 %5, 0
  br i1 %6, label %7, label %52

7:                                                ; preds = %2
  %8 = load ptr, ptr %3, align 8, !tbaa !10
  %9 = getelementptr inbounds nuw %struct._generic_N_Vector, ptr %8, i32 0, i32 1
  %10 = load ptr, ptr %9, align 8, !tbaa !12
  %11 = getelementptr inbounds nuw %struct._generic_N_Vector_Ops, ptr %10, i32 0, i32 30
  store ptr @N_VLinearCombination_Serial, ptr %11, align 8, !tbaa !82
  %12 = load ptr, ptr %3, align 8, !tbaa !10
  %13 = getelementptr inbounds nuw %struct._generic_N_Vector, ptr %12, i32 0, i32 1
  %14 = load ptr, ptr %13, align 8, !tbaa !12
  %15 = getelementptr inbounds nuw %struct._generic_N_Vector_Ops, ptr %14, i32 0, i32 31
  store ptr @N_VScaleAddMulti_Serial, ptr %15, align 8, !tbaa !83
  %16 = load ptr, ptr %3, align 8, !tbaa !10
  %17 = getelementptr inbounds nuw %struct._generic_N_Vector, ptr %16, i32 0, i32 1
  %18 = load ptr, ptr %17, align 8, !tbaa !12
  %19 = getelementptr inbounds nuw %struct._generic_N_Vector_Ops, ptr %18, i32 0, i32 32
  store ptr @N_VDotProdMulti_Serial, ptr %19, align 8, !tbaa !84
  %20 = load ptr, ptr %3, align 8, !tbaa !10
  %21 = getelementptr inbounds nuw %struct._generic_N_Vector, ptr %20, i32 0, i32 1
  %22 = load ptr, ptr %21, align 8, !tbaa !12
  %23 = getelementptr inbounds nuw %struct._generic_N_Vector_Ops, ptr %22, i32 0, i32 33
  store ptr @N_VLinearSumVectorArray_Serial, ptr %23, align 8, !tbaa !85
  %24 = load ptr, ptr %3, align 8, !tbaa !10
  %25 = getelementptr inbounds nuw %struct._generic_N_Vector, ptr %24, i32 0, i32 1
  %26 = load ptr, ptr %25, align 8, !tbaa !12
  %27 = getelementptr inbounds nuw %struct._generic_N_Vector_Ops, ptr %26, i32 0, i32 34
  store ptr @N_VScaleVectorArray_Serial, ptr %27, align 8, !tbaa !86
  %28 = load ptr, ptr %3, align 8, !tbaa !10
  %29 = getelementptr inbounds nuw %struct._generic_N_Vector, ptr %28, i32 0, i32 1
  %30 = load ptr, ptr %29, align 8, !tbaa !12
  %31 = getelementptr inbounds nuw %struct._generic_N_Vector_Ops, ptr %30, i32 0, i32 35
  store ptr @N_VConstVectorArray_Serial, ptr %31, align 8, !tbaa !87
  %32 = load ptr, ptr %3, align 8, !tbaa !10
  %33 = getelementptr inbounds nuw %struct._generic_N_Vector, ptr %32, i32 0, i32 1
  %34 = load ptr, ptr %33, align 8, !tbaa !12
  %35 = getelementptr inbounds nuw %struct._generic_N_Vector_Ops, ptr %34, i32 0, i32 36
  store ptr @N_VWrmsNormVectorArray_Serial, ptr %35, align 8, !tbaa !88
  %36 = load ptr, ptr %3, align 8, !tbaa !10
  %37 = getelementptr inbounds nuw %struct._generic_N_Vector, ptr %36, i32 0, i32 1
  %38 = load ptr, ptr %37, align 8, !tbaa !12
  %39 = getelementptr inbounds nuw %struct._generic_N_Vector_Ops, ptr %38, i32 0, i32 37
  store ptr @N_VWrmsNormMaskVectorArray_Serial, ptr %39, align 8, !tbaa !89
  %40 = load ptr, ptr %3, align 8, !tbaa !10
  %41 = getelementptr inbounds nuw %struct._generic_N_Vector, ptr %40, i32 0, i32 1
  %42 = load ptr, ptr %41, align 8, !tbaa !12
  %43 = getelementptr inbounds nuw %struct._generic_N_Vector_Ops, ptr %42, i32 0, i32 38
  store ptr @N_VScaleAddMultiVectorArray_Serial, ptr %43, align 8, !tbaa !90
  %44 = load ptr, ptr %3, align 8, !tbaa !10
  %45 = getelementptr inbounds nuw %struct._generic_N_Vector, ptr %44, i32 0, i32 1
  %46 = load ptr, ptr %45, align 8, !tbaa !12
  %47 = getelementptr inbounds nuw %struct._generic_N_Vector_Ops, ptr %46, i32 0, i32 39
  store ptr @N_VLinearCombinationVectorArray_Serial, ptr %47, align 8, !tbaa !91
  %48 = load ptr, ptr %3, align 8, !tbaa !10
  %49 = getelementptr inbounds nuw %struct._generic_N_Vector, ptr %48, i32 0, i32 1
  %50 = load ptr, ptr %49, align 8, !tbaa !12
  %51 = getelementptr inbounds nuw %struct._generic_N_Vector_Ops, ptr %50, i32 0, i32 49
  store ptr @N_VDotProdMulti_Serial, ptr %51, align 8, !tbaa !53
  br label %97

52:                                               ; preds = %2
  %53 = load ptr, ptr %3, align 8, !tbaa !10
  %54 = getelementptr inbounds nuw %struct._generic_N_Vector, ptr %53, i32 0, i32 1
  %55 = load ptr, ptr %54, align 8, !tbaa !12
  %56 = getelementptr inbounds nuw %struct._generic_N_Vector_Ops, ptr %55, i32 0, i32 30
  store ptr null, ptr %56, align 8, !tbaa !82
  %57 = load ptr, ptr %3, align 8, !tbaa !10
  %58 = getelementptr inbounds nuw %struct._generic_N_Vector, ptr %57, i32 0, i32 1
  %59 = load ptr, ptr %58, align 8, !tbaa !12
  %60 = getelementptr inbounds nuw %struct._generic_N_Vector_Ops, ptr %59, i32 0, i32 31
  store ptr null, ptr %60, align 8, !tbaa !83
  %61 = load ptr, ptr %3, align 8, !tbaa !10
  %62 = getelementptr inbounds nuw %struct._generic_N_Vector, ptr %61, i32 0, i32 1
  %63 = load ptr, ptr %62, align 8, !tbaa !12
  %64 = getelementptr inbounds nuw %struct._generic_N_Vector_Ops, ptr %63, i32 0, i32 32
  store ptr null, ptr %64, align 8, !tbaa !84
  %65 = load ptr, ptr %3, align 8, !tbaa !10
  %66 = getelementptr inbounds nuw %struct._generic_N_Vector, ptr %65, i32 0, i32 1
  %67 = load ptr, ptr %66, align 8, !tbaa !12
  %68 = getelementptr inbounds nuw %struct._generic_N_Vector_Ops, ptr %67, i32 0, i32 33
  store ptr null, ptr %68, align 8, !tbaa !85
  %69 = load ptr, ptr %3, align 8, !tbaa !10
  %70 = getelementptr inbounds nuw %struct._generic_N_Vector, ptr %69, i32 0, i32 1
  %71 = load ptr, ptr %70, align 8, !tbaa !12
  %72 = getelementptr inbounds nuw %struct._generic_N_Vector_Ops, ptr %71, i32 0, i32 34
  store ptr null, ptr %72, align 8, !tbaa !86
  %73 = load ptr, ptr %3, align 8, !tbaa !10
  %74 = getelementptr inbounds nuw %struct._generic_N_Vector, ptr %73, i32 0, i32 1
  %75 = load ptr, ptr %74, align 8, !tbaa !12
  %76 = getelementptr inbounds nuw %struct._generic_N_Vector_Ops, ptr %75, i32 0, i32 35
  store ptr null, ptr %76, align 8, !tbaa !87
  %77 = load ptr, ptr %3, align 8, !tbaa !10
  %78 = getelementptr inbounds nuw %struct._generic_N_Vector, ptr %77, i32 0, i32 1
  %79 = load ptr, ptr %78, align 8, !tbaa !12
  %80 = getelementptr inbounds nuw %struct._generic_N_Vector_Ops, ptr %79, i32 0, i32 36
  store ptr null, ptr %80, align 8, !tbaa !88
  %81 = load ptr, ptr %3, align 8, !tbaa !10
  %82 = getelementptr inbounds nuw %struct._generic_N_Vector, ptr %81, i32 0, i32 1
  %83 = load ptr, ptr %82, align 8, !tbaa !12
  %84 = getelementptr inbounds nuw %struct._generic_N_Vector_Ops, ptr %83, i32 0, i32 37
  store ptr null, ptr %84, align 8, !tbaa !89
  %85 = load ptr, ptr %3, align 8, !tbaa !10
  %86 = getelementptr inbounds nuw %struct._generic_N_Vector, ptr %85, i32 0, i32 1
  %87 = load ptr, ptr %86, align 8, !tbaa !12
  %88 = getelementptr inbounds nuw %struct._generic_N_Vector_Ops, ptr %87, i32 0, i32 38
  store ptr null, ptr %88, align 8, !tbaa !90
  %89 = load ptr, ptr %3, align 8, !tbaa !10
  %90 = getelementptr inbounds nuw %struct._generic_N_Vector, ptr %89, i32 0, i32 1
  %91 = load ptr, ptr %90, align 8, !tbaa !12
  %92 = getelementptr inbounds nuw %struct._generic_N_Vector_Ops, ptr %91, i32 0, i32 39
  store ptr null, ptr %92, align 8, !tbaa !91
  %93 = load ptr, ptr %3, align 8, !tbaa !10
  %94 = getelementptr inbounds nuw %struct._generic_N_Vector, ptr %93, i32 0, i32 1
  %95 = load ptr, ptr %94, align 8, !tbaa !12
  %96 = getelementptr inbounds nuw %struct._generic_N_Vector_Ops, ptr %95, i32 0, i32 49
  store ptr null, ptr %96, align 8, !tbaa !53
  br label %97

97:                                               ; preds = %52, %7
  ret i32 0
}