; Function Attrs: mustprogress nofree norecurse nosync nounwind willreturn memory(write, argmem: readwrite, inaccessiblemem: none) uwtable
define noundef i32 @N_VEnableFusedOps_Serial(ptr noundef readonly captures(none) %0, i32 noundef %1) local_unnamed_addr #17 {
  %.not = icmp eq i32 %1, 0
  %3 = getelementptr inbounds nuw i8, ptr %0, i64 8
  %4 = load ptr, ptr %3, align 8, !tbaa !3
  %5 = getelementptr inbounds nuw i8, ptr %4, i64 240
  br i1 %.not, label %17, label %6

6:                                                ; preds = %2
  store ptr @N_VLinearCombination_Serial, ptr %5, align 8, !tbaa !73
  %7 = getelementptr inbounds nuw i8, ptr %4, i64 248
  store ptr @N_VScaleAddMulti_Serial, ptr %7, align 8, !tbaa !74
  %8 = getelementptr inbounds nuw i8, ptr %4, i64 256
  store ptr @N_VDotProdMulti_Serial, ptr %8, align 8, !tbaa !75
  %9 = getelementptr inbounds nuw i8, ptr %4, i64 264
  store ptr @N_VLinearSumVectorArray_Serial, ptr %9, align 8, !tbaa !76
  %10 = getelementptr inbounds nuw i8, ptr %4, i64 272
  store ptr @N_VScaleVectorArray_Serial, ptr %10, align 8, !tbaa !77
  %11 = getelementptr inbounds nuw i8, ptr %4, i64 280
  store ptr @N_VConstVectorArray_Serial, ptr %11, align 8, !tbaa !78
  %12 = getelementptr inbounds nuw i8, ptr %4, i64 288
  store ptr @N_VWrmsNormVectorArray_Serial, ptr %12, align 8, !tbaa !79
  %13 = getelementptr inbounds nuw i8, ptr %4, i64 296
  store ptr @N_VWrmsNormMaskVectorArray_Serial, ptr %13, align 8, !tbaa !80
  %14 = getelementptr inbounds nuw i8, ptr %4, i64 304
  store ptr @N_VScaleAddMultiVectorArray_Serial, ptr %14, align 8, !tbaa !81
  %15 = getelementptr inbounds nuw i8, ptr %4, i64 312
  store ptr @N_VLinearCombinationVectorArray_Serial, ptr %15, align 8, !tbaa !82
  %16 = getelementptr inbounds nuw i8, ptr %4, i64 392
  store ptr @N_VDotProdMulti_Serial, ptr %16, align 8, !tbaa !48
  br label %19

17:                                               ; preds = %2
  %18 = getelementptr inbounds nuw i8, ptr %4, i64 392
  store ptr null, ptr %18, align 8, !tbaa !48
  tail call void @llvm.memset.p0.i64(ptr noundef nonnull align 8 dereferenceable(80) %5, i8 0, i64 80, i1 false)
  br label %19

19:                                               ; preds = %17, %6
  ret i32 0
}